target datalayout = "e-m:e-p270:32:32-p271:32:32-p272:64:64-i64:64-i128:128-f80:128-n8:16:32:64-S128"
target triple = "x86_64-pc-linux-gnu"

%struct.AVStream = type { ptr, i32, i32, ptr, ptr, %struct.AVRational, i64, i64, i64, i32, i32, %struct.AVRational, ptr, %struct.AVRational, %struct.AVPacket, i32, %struct.AVRational, i32 }
%struct.AVPacket = type { ptr, i64, i64, ptr, i32, i32, i32, ptr, i32, i64, i64, ptr, ptr, %struct.AVRational }
%struct.AVRational = type { i32, i32 }
%struct.FFStream = type { %struct.AVStream, ptr, i32, ptr, i32, ptr, i32, %struct.anon, i32, i32, %struct.FFFrac, ptr, ptr, i32, i32, i64, i64, i32, i32, i32, i64, i64, i64, i32, i64, i64, i64, i32, i32, [17 x i64], [17 x i8], [17 x i64], i64, i8, i8, %struct.AVRational, %struct.AVProbeData, ptr, i64, i32, i32, i32, ptr, i32, i32, i64, i64, ptr, %struct.AVRational }
%struct.anon = type { ptr, i32 }
%struct.FFFrac = type { i64, i64, i64 }
%struct.AVProbeData = type { ptr, ptr, i32, ptr }
%struct.AVIndexEntry = type { i64, i64, i32, i32 }

; Function Attrs: alwaysinline nounwind uwtable
define internal ptr @ffstream(ptr noundef %0) #2 {
  %2 = alloca ptr, align 8
  store ptr %0, ptr %2, align 8, !tbaa !9
  %3 = load ptr, ptr %2, align 8, !tbaa !9
  ret ptr %3
}

; Function Attrs: nounwind uwtable
define ptr @avformat_index_get_entry(ptr noundef %0, i32 noundef %1) #0 {
  %3 = alloca ptr, align 8
  %4 = alloca ptr, align 8
  %5 = alloca i32, align 4
  %6 = alloca ptr, align 8
  %7 = alloca i32, align 4
  store ptr %0, ptr %4, align 8, !tbaa !9
  store i32 %1, ptr %5, align 4, !tbaa !13
  call void @llvm.lifetime.start.p0(i64 8, ptr %6) #11
  %8 = load ptr, ptr %4, align 8, !tbaa !9
  %9 = call ptr @ffstream(ptr noundef %8)
  store ptr %9, ptr %6, align 8, !tbaa !31
  %10 = load i32, ptr %5, align 4, !tbaa !13
  %11 = icmp slt i32 %10, 0
  br i1 %11, label %18, label %12

12:                                               ; preds = %2
  %13 = load i32, ptr %5, align 4, !tbaa !13
  %14 = load ptr, ptr %6, align 8, !tbaa !31
  %15 = getelementptr inbounds nuw %struct.FFStream, ptr %14, i32 0, i32 13
  %16 = load i32, ptr %15, align 8, !tbaa !56
  %17 = icmp sge i32 %13, %16
  br i1 %17, label %18, label %19

18:                                               ; preds = %12, %2
  store ptr null, ptr %3, align 8
  store i32 1, ptr %7, align 4
  br label %26

19:                                               ; preds = %12
  %20 = load ptr, ptr %6, align 8, !tbaa !31
  %21 = getelementptr inbounds nuw %struct.FFStream, ptr %20, i32 0, i32 12
  %22 = load ptr, ptr %21, align 8, !tbaa !57
  %23 = load i32, ptr %5, align 4, !tbaa !13
  %24 = sext i32 %23 to i64
  %25 = getelementptr inbounds %struct.AVIndexEntry, ptr %22, i64 %24
  store ptr %25, ptr %3, align 8
  store i32 1, ptr %7, align 4
  br label %26

26:                                               ; preds = %19, %18
  call void @llvm.lifetime.end.p0(i64 8, ptr %6) #11
  %27 = load ptr, ptr %3, align 8
  ret ptr %27
}